; Function Attrs: nounwind uwtable
define dso_local i32 @lua_dump(ptr noundef %0, ptr noundef %1, ptr noundef %2) local_unnamed_addr #2 {
  %4 = getelementptr inbounds nuw i8, ptr %0, i64 16
  %5 = load ptr, ptr %4, align 8, !tbaa !4
  %6 = getelementptr inbounds i8, ptr %5, i64 -8
  %7 = load i32, ptr %6, align 8, !tbaa !20
  %8 = icmp eq i32 %7, 6
  br i1 %8, label %9, label %18

9:                                                ; preds = %3
  %10 = getelementptr inbounds i8, ptr %5, i64 -16
  %11 = load ptr, ptr %10, align 8, !tbaa !19
  %12 = getelementptr inbounds nuw i8, ptr %11, i64 10
  %13 = load i8, ptr %12, align 2, !tbaa !19
  %.not = icmp eq i8 %13, 0
  br i1 %.not, label %14, label %18

14:                                               ; preds = %9
  %15 = getelementptr inbounds nuw i8, ptr %11, i64 32
  %16 = load ptr, ptr %15, align 8, !tbaa !19
  %17 = tail call i32 @luaU_dump(ptr noundef nonnull %0, ptr noundef %16, ptr noundef %1, ptr noundef %2, i32 noundef 0) #14
  br label %18

18:                                               ; preds = %3, %9, %14
  %.0 = phi i32 [ %17, %14 ], [ 1, %9 ], [ 1, %3 ]
  ret i32 %.0
}